Certificate:
    Data:
        Version: 3 (0x2)
        Serial Number:
            96:53:3f:00:35:4d:b7:4a
        Signature Algorithm: sha1WithRSAEncryption
        Issuer: C=TW, ST=Taiwan, L=Taipei, O=Instek Digital, CN=Instek Digital Root CA
        Validity
            Not Before: Nov  8 06:00:13 2011 GMT
            Not After : Nov  7 06:00:13 2012 GMT
        Subject: C=TW, ST=Taiwan, L=Taipei, O=Instek Digital, CN=Instek Digital CA
        Subject Public Key Info:
            Public Key Algorithm: rsaEncryption
                Public-Key: (2048 bit)
                Modulus:
                    00:a3:38:75:1b:7d:12:a1:68:c1:eb:bb:d1:7e:07:
                    a0:61:b6:c8:c0:58:50:b0:cc:3b:8b:5d:d5:0e:b9:
                    da:de:d3:55:24:8c:5a:96:bd:d2:10:56:b7:30:02:
                    13:fc:b7:f9:ca:85:60:0a:b4:7a:78:c0:a2:f0:b8:
                    12:e4:28:8e:a9:b0:31:6f:35:f8:25:5b:dc:d7:2c:
                    64:6b:4b:b2:fd:36:22:b5:75:7a:c6:81:2f:23:7c:
                    c4:3c:4b:d8:a5:47:89:e6:b5:cb:cf:2b:5f:07:2c:
                    77:5c:3e:28:d3:33:67:be:1c:3f:ff:e5:32:c5:27:
                    7f:95:a3:7b:0c:03:e9:16:ff:44:6a:c1:82:7f:d8:
                    e4:ae:09:85:26:1d:20:4b:70:41:3b:86:3e:6b:b2:
                    15:72:57:05:48:84:db:87:0d:84:9d:73:ee:da:a6:
                    4b:4c:8b:e0:bc:a7:f5:ca:11:92:b9:52:3f:92:b6:
                    85:c0:b9:5f:38:29:24:07:8d:ad:47:84:fe:68:a3:
                    b8:bc:fa:6b:e6:55:ca:9d:20:61:f8:4a:5a:8a:9c:
                    c4:71:2f:59:63:81:4e:c4:68:f8:b9:f5:8d:aa:97:
                    6a:e0:eb:7b:44:65:dc:73:97:d0:41:8d:00:07:d5:
                    63:c5:80:d9:1c:cb:2a:57:83:7c:3d:d3:ac:85:b9:
                    7a:49
                Exponent: 65537 (0x10001)
        X509v3 extensions:
            X509v3 Basic Constraints: 
                CA:TRUE
            Netscape Comment: 
                OpenSSL Generated Certificate
            X509v3 Subject Key Identifier: 
                DC:CE:48:F3:66:31:5F:6F:41:92:C0:4A:07:8F:38:D9:BA:66:58:19
            X509v3 Authority Key Identifier: 
                keyid:03:98:8A:6E:F1:64:42:29:B2:D3:66:36:05:BC:0A:DC:80:D6:18:9D

    Signature Algorithm: sha1WithRSAEncryption
        17:a1:c9:cf:46:ca:f1:7d:b8:20:2d:00:14:e3:00:f8:10:20:
        c9:d9:ad:48:52:e7:88:61:cb:7b:30:f2:0f:e2:03:da:9f:0f:
        ee:3a:1c:cd:af:49:84:5f:d3:c4:f3:27:23:92:4a:cb:45:61:
        2b:3c:24:8f:e0:2d:f6:cf:bb:3e:3f:49:01:03:44:76:bb:32:
        fb:9a:53:bf:1a:6b:bd:9d:2d:58:1c:bc:0c:d1:a8:4c:c1:f5:
        8c:39:05:e9:b7:df:bc:7a:72:46:1b:21:3b:98:45:f0:34:2b:
        80:e1:76:f8:94:93:da:db:67:e6:28:18:44:91:5a:47:9b:a8:
        fe:d4:e9:20:ba:cc:1e:fb:f6:e2:3c:83:68:3a:0b:0c:00:88:
        c0:c4:54:20:de:fe:94:37:b5:7d:2d:37:6b:92:db:7a:11:5b:
        75:16:d3:69:ff:7d:10:52:12:05:cf:fd:26:56:f7:87:d5:1d:
        66:d4:92:0f:09:5f:65:1d:fd:3f:7d:79:bc:a2:7b:2d:6a:4c:
        c9:5a:e2:39:12:af:76:79:54:d9:cd:71:e1:05:f3:b0:89:d6:
        bf:62:69:be:5e:92:f4:9e:34:b7:49:28:a9:56:3e:8d:2d:56:
        c9:6a:fe:ea:3a:bb:9f:71:c7:7c:e2:87:41:e5:eb:3d:2c:ca:
        2e:90:a2:be
-----BEGIN CERTIFICATE-----
MIIDzjCCAragAwIBAgIJAJZTPwA1TbdKMA0GCSqGSIb3DQEBBQUAMGkxCzAJBgNV
BAYTAlRXMQ8wDQYDVQQIDAZUYWl3YW4xDzANBgNVBAcMBlRhaXBlaTEXMBUGA1UE
CgwOSW5zdGVrIERpZ2l0YWwxHzAdBgNVBAMMFkluc3RlayBEaWdpdGFsIFJvb3Qg
Q0EwHhcNMTExMTA4MDYwMDEzWhcNMTIxMTA3MDYwMDEzWjBkMQswCQYDVQQGEwJU
VzEPMA0GA1UECAwGVGFpd2FuMQ8wDQYDVQQHDAZUYWlwZWkxFzAVBgNVBAoMDklu
c3RlayBEaWdpdGFsMRowGAYDVQQDDBFJbnN0ZWsgRGlnaXRhbCBDQTCCASIwDQYJ
KoZIhvcNAQEBBQADggEPADCCAQoCggEBAKM4dRt9EqFoweu70X4HoGG2yMBYULDM
O4td1Q652t7TVSSMWpa90hBWtzACE/y3+cqFYAq0enjAovC4EuQojqmwMW81+CVb
3NcsZGtLsv02IrV1esaBLyN8xDxL2KVHiea1y88rXwcsd1w+KNMzZ74cP//lMsUn
f5WjewwD6Rb/RGrBgn/Y5K4JhSYdIEtwQTuGPmuyFXJXBUiE24cNhJ1z7tqmS0yL
4Lyn9coRkrlSP5K2hcC5XzgpJAeNrUeE/mijuLz6a+ZVyp0gYfhKWoqcxHEvWWOB
TsRo+Ln1jaqXauDre0Rl3HOX0EGNAAfVY8WA2RzLKleDfD3TrIW5ekkCAwEAAaN+
MHwwDAYDVR0TBAUwAwEB/zAsBglghkgBhvhCAQ0EHxYdT3BlblNTTCBHZW5lcmF0
ZWQgQ2VydGlmaWNhdGUwHQYDVR0OBBYEFNzOSPNmMV9vQZLASgePONm6ZlgZMB8G
A1UdIwQYMBaAFAOYim7xZEIpstNmNgW8CtyA1hidMA0GCSqGSIb3DQEBBQUAA4IB
AQAXocnPRsrxfbggLQAU4wD4ECDJ2a1IUueIYct7MPIP4gPanw/uOhzNr0mEX9PE
8ycjkkrLRWErPCSP4C32z7s+P0kBA0R2uzL7mlO/Gmu9nS1YHLwM0ahMwfWMOQXp
t9+8enJGGyE7mEXwNCuA4Xb4lJPa22fmKBhEkVpHm6j+1Okguswe+/biPINoOgsM
AIjAxFQg3v6UN7V9LTdrktt6EVt1FtNp/30QUhIFz/0mVveH1R1m1JIPCV9lHf0/
fXm8onstakzJWuI5Eq92eVTZzXHhBfOwida/Ymm+XpL0njS3SSipVj6NLVbJav7q
Orufccd84odB5es9LMoukKK+
-----END CERTIFICATE-----
-----BEGIN CERTIFICATE-----
MIIDpTCCAo2gAwIBAgIJAJZTPwA1TbdJMA0GCSqGSIb3DQEBBQUAMGkxCzAJBgNV
BAYTAlRXMQ8wDQYDVQQIDAZUYWl3YW4xDzANBgNVBAcMBlRhaXBlaTEXMBUGA1UE
CgwOSW5zdGVrIERpZ2l0YWwxHzAdBgNVBAMMFkluc3RlayBEaWdpdGFsIFJvb3Qg
Q0EwHhcNMTExMTA4MDU1OTQ4WhcNMjExMTA1MDU1OTQ4WjBpMQswCQYDVQQGEwJU
VzEPMA0GA1UECAwGVGFpd2FuMQ8wDQYDVQQHDAZUYWlwZWkxFzAVBgNVBAoMDklu
c3RlayBEaWdpdGFsMR8wHQYDVQQDDBZJbnN0ZWsgRGlnaXRhbCBSb290IENBMIIB
IjANBgkqhkiG9w0BAQEFAAOCAQ8AMIIBCgKCAQEAzSbPLxzwhf/u1zsqRlPD3Zpi
LD5xm7c9fBCp0x953fW3CQQAcnASnFJMZax6iOiirohLx2kuqlwZs0LH7IOuvnhF
1S4R4bW96WtG9KVUN7XrLWjlbx66uwo+Scj2sfj//yQivbczjAmChGy8GHgFHaYQ
HVYrNfj9OX8bWYEpPXz2lP+tx6o3VTfrn4eR021Jsmk51P4647MlBQEp3vhsjDrD
ng4C2BrC+452r5sbixaEqw7owKVkNrx4mUA8++5Bk8v+q/6GnDdhqx+pXk/ZteXL
NAtL+2+URSeJEPxzo6vfc7Igr2j+89ocVVirDghZOYlMqW4Oe44RNRULqf266QID
AQABo1AwTjAdBgNVHQ4EFgQUA5iKbvFkQimy02Y2BbwK3IDWGJ0wHwYDVR0jBBgw
FoAUA5iKbvFkQimy02Y2BbwK3IDWGJ0wDAYDVR0TBAUwAwEB/zANBgkqhkiG9w0B
AQUFAAOCAQEAGfAs/rf4cUDxPHjOCQsvMyzlvRb8Zc8WQSBTeXgD44XDvTuLYcbU
rkCGoD/nF5GKaYvIP/bE7O6MV2lmM7NcgD7vWXp8ybcIEAvrf4AP6DUwrQq5j1WQ
f+6hQg84ab5ZGP+NIGhLJFYERiiNjgcwdZbQ5Fbb7ICt/wOCJWobrvPHj0u6ePeW
74aq1P2Sd5TUnHKjTvKl8ZLGsYFdRImyR2KiGr9VxqllG8ZS+E5w+xZMFVpn5NIY
W/7N5bIig7KiAXT8Cm+0AN/80flPa7VRduGhcHcRCIr07rMpcuRV59l7vEEUwpZE
ZuwKlvsZkSyrY+7mJfiy8BAWHi+QTtPPKg==
-----END CERTIFICATE-----
