Certificate:
    Data:
        Version: 3 (0x2)
        Serial Number:
            96:53:3f:00:35:4d:b7:4b
        Signature Algorithm: sha1WithRSAEncryption
        Issuer: C=TW, ST=Taiwan, L=Taipei, O=Instek Digital, CN=Instek Digital CA
        Validity
            Not Before: Nov  8 06:00:49 2011 GMT
            Not After : Nov  7 06:00:49 2012 GMT
        Subject: C=TW, ST=Taiwan, L=Taipei, O=Instek Digital, CN=Instek Digital Server
        Subject Public Key Info:
            Public Key Algorithm: rsaEncryption
                Public-Key: (2048 bit)
                Modulus:
                    00:a7:ee:e1:c3:ea:23:6c:25:f2:e4:5c:b6:7f:17:
                    79:0c:3f:11:86:0b:69:5d:2f:7b:2b:6d:30:27:74:
                    6d:f2:42:46:f2:a2:0a:40:8e:79:8c:26:15:7b:8d:
                    9d:eb:cc:ed:a2:0f:80:62:8c:d8:e1:f9:bd:86:a7:
                    f2:71:19:14:eb:3b:b6:ea:8e:19:e1:cc:62:e9:4e:
                    97:16:5f:7a:93:24:5a:ba:d4:3a:e6:bc:85:43:7c:
                    1e:86:14:9d:30:76:10:ad:49:2f:82:13:6e:8b:e3:
                    29:c0:8f:74:5e:fe:68:98:8c:38:a2:c5:c0:13:f1:
                    5a:7f:0b:c9:58:eb:48:f4:a6:67:b0:b0:cc:d1:43:
                    9d:5d:4b:36:d6:7e:e2:ce:cb:3a:73:11:dd:e6:02:
                    c8:ee:8e:8b:4c:98:67:c1:cf:5d:29:d5:f1:e1:95:
                    f0:32:0f:f1:78:69:fe:1b:b2:0d:d7:79:32:cc:2f:
                    32:ab:18:6c:e2:13:a6:3e:76:22:c1:ba:73:64:40:
                    66:1b:92:bc:73:6c:31:6a:01:a8:94:5a:4d:b9:c2:
                    eb:78:ec:fd:2e:02:af:91:a5:3e:08:0d:64:9b:f2:
                    54:67:e5:0d:97:5e:c9:ea:2d:56:33:d9:36:26:5b:
                    92:6d:a7:63:e0:7d:ae:4c:60:30:55:90:76:a5:3b:
                    d2:79
                Exponent: 65537 (0x10001)
        X509v3 extensions:
            X509v3 Basic Constraints: 
                CA:TRUE
            Netscape Comment: 
                OpenSSL Generated Certificate
            X509v3 Subject Key Identifier: 
                E9:E4:A9:7A:4E:DD:1B:2C:5B:F6:C1:9C:14:C0:3E:83:3E:5B:A3:58
            X509v3 Authority Key Identifier: 
                keyid:DC:CE:48:F3:66:31:5F:6F:41:92:C0:4A:07:8F:38:D9:BA:66:58:19

    Signature Algorithm: sha1WithRSAEncryption
        46:72:04:6e:12:f1:57:bd:09:f2:4c:fd:80:ae:65:75:54:8c:
        db:4f:ec:dc:31:4c:1c:21:03:dc:0d:9e:ff:47:af:6f:70:98:
        e7:e8:5a:02:0f:17:09:eb:2f:2e:3a:33:6f:7d:92:df:9b:5b:
        27:8b:0a:3a:23:5f:5f:4a:e1:31:7b:9f:5e:1d:12:28:a8:a4:
        7d:b4:e6:16:e9:34:72:f2:fb:60:18:eb:41:7c:21:e2:fe:ac:
        ac:56:d8:1d:a7:c3:31:08:e3:f6:6e:5b:09:db:9a:e3:84:8b:
        b6:3b:eb:ad:57:5a:7e:76:3c:25:e3:9b:af:14:3b:21:be:76:
        89:6e:ed:c9:ac:e7:c2:0f:27:95:85:8c:a4:87:83:d9:04:d2:
        3e:d6:28:69:2e:61:51:71:9f:25:9b:fd:15:a5:5f:6a:ef:63:
        91:bd:c5:de:0e:33:76:4e:be:d4:37:5d:69:fc:af:74:9d:83:
        29:dc:9c:03:8a:63:87:c0:39:d2:e2:77:f1:fa:ee:60:c4:c0:
        a0:1e:af:b2:26:0f:48:c4:08:33:a5:97:5c:4e:4c:ce:2a:b6:
        34:ab:dc:b0:9f:6b:bc:3d:77:67:fb:f1:10:f1:83:a4:c9:8f:
        46:17:bc:19:fd:70:69:2a:e1:58:75:8e:79:62:6b:21:ef:7d:
        b5:46:9e:fd
-----BEGIN CERTIFICATE-----
MIIDzTCCArWgAwIBAgIJAJZTPwA1TbdLMA0GCSqGSIb3DQEBBQUAMGQxCzAJBgNV
BAYTAlRXMQ8wDQYDVQQIDAZUYWl3YW4xDzANBgNVBAcMBlRhaXBlaTEXMBUGA1UE
CgwOSW5zdGVrIERpZ2l0YWwxGjAYBgNVBAMMEUluc3RlayBEaWdpdGFsIENBMB4X
DTExMTEwODA2MDA0OVoXDTEyMTEwNzA2MDA0OVowaDELMAkGA1UEBhMCVFcxDzAN
BgNVBAgMBlRhaXdhbjEPMA0GA1UEBwwGVGFpcGVpMRcwFQYDVQQKDA5JbnN0ZWsg
RGlnaXRhbDEeMBwGA1UEAwwVSW5zdGVrIERpZ2l0YWwgU2VydmVyMIIBIjANBgkq
hkiG9w0BAQEFAAOCAQ8AMIIBCgKCAQEAp+7hw+ojbCXy5Fy2fxd5DD8RhgtpXS97
K20wJ3Rt8kJG8qIKQI55jCYVe42d68ztog+AYozY4fm9hqfycRkU6zu26o4Z4cxi
6U6XFl96kyRautQ65ryFQ3wehhSdMHYQrUkvghNui+MpwI90Xv5omIw4osXAE/Fa
fwvJWOtI9KZnsLDM0UOdXUs21n7izss6cxHd5gLI7o6LTJhnwc9dKdXx4ZXwMg/x
eGn+G7IN13kyzC8yqxhs4hOmPnYiwbpzZEBmG5K8c2wxagGolFpNucLreOz9LgKv
kaU+CA1km/JUZ+UNl17J6i1WM9k2JluSbadj4H2uTGAwVZB2pTvSeQIDAQABo34w
fDAMBgNVHRMEBTADAQH/MCwGCWCGSAGG+EIBDQQfFh1PcGVuU1NMIEdlbmVyYXRl
ZCBDZXJ0aWZpY2F0ZTAdBgNVHQ4EFgQU6eSpek7dGyxb9sGcFMA+gz5bo1gwHwYD
VR0jBBgwFoAU3M5I82YxX29BksBKB4842bpmWBkwDQYJKoZIhvcNAQEFBQADggEB
AEZyBG4S8Ve9CfJM/YCuZXVUjNtP7NwxTBwhA9wNnv9Hr29wmOfoWgIPFwnrLy46
M299kt+bWyeLCjojX19K4TF7n14dEiiopH205hbpNHLy+2AY60F8IeL+rKxW2B2n
wzEI4/ZuWwnbmuOEi7Y7661XWn52PCXjm68UOyG+dolu7cms58IPJ5WFjKSHg9kE
0j7WKGkuYVFxnyWb/RWlX2rvY5G9xd4OM3ZOvtQ3XWn8r3SdgyncnAOKY4fAOdLi
d/H67mDEwKAer7ImD0jECDOll1xOTM4qtjSr3LCfa7w9d2f78RDxg6TJj0YXvBn9
cGkq4Vh1jnliayHvfbVGnv0=
-----END CERTIFICATE-----
