Certificate:
    Data:
        Version: 3 (0x2)
        Serial Number:
            96:53:3f:00:35:4d:b7:4c
        Signature Algorithm: sha1WithRSAEncryption
        Issuer: C=TW, ST=Taiwan, L=Taipei, O=Instek Digital, CN=Instek Digital CA
        Validity
            Not Before: Nov  8 06:01:27 2011 GMT
            Not After : Nov  7 06:01:27 2012 GMT
        Subject: C=TW, ST=Taiwan, L=Taipei, O=Instek Digital, CN=Instek Digital Client
        Subject Public Key Info:
            Public Key Algorithm: rsaEncryption
                Public-Key: (2048 bit)
                Modulus:
                    00:b1:04:9e:0c:4f:3a:43:f8:8a:27:a5:38:f8:48:
                    b0:83:ec:ea:55:d4:02:d0:db:78:78:d9:9f:39:92:
                    f1:cf:9c:d9:54:1f:c5:f7:34:c9:a1:e3:ac:14:78:
                    af:a6:dc:ff:2b:ab:7a:25:90:cf:5e:6b:fc:d7:71:
                    93:e7:e5:da:c2:c6:cf:f2:d4:c0:6e:7f:4d:85:e3:
                    fa:98:56:b3:c5:5c:de:21:a3:03:85:35:48:28:d9:
                    8b:2e:ed:e0:b3:46:d8:68:e0:a9:92:9d:f2:2b:1e:
                    a1:0f:3a:07:af:cb:b4:ca:07:17:df:dd:cb:6c:e2:
                    41:31:82:24:7e:bb:db:19:45:3b:f4:83:13:cb:c6:
                    d7:03:c5:8a:7f:4c:a2:82:22:4a:00:c0:43:25:e5:
                    25:74:84:3a:d0:47:e7:ea:53:65:f6:e9:4b:71:b5:
                    32:31:2f:c6:81:e4:86:c1:8b:fe:11:12:e0:a2:74:
                    9c:92:66:30:25:e8:b6:24:5b:70:59:b5:8a:7d:f9:
                    ee:80:34:69:aa:1d:47:9a:57:d8:25:7a:83:65:96:
                    ab:0f:25:2f:ac:68:30:d7:d1:81:b4:73:95:76:fc:
                    38:04:ed:8d:86:4d:7b:51:4e:54:15:6a:db:37:15:
                    77:7c:06:bc:bb:38:0b:1f:4f:26:5c:67:5e:cf:93:
                    5a:21
                Exponent: 65537 (0x10001)
        X509v3 extensions:
            X509v3 Basic Constraints: 
                CA:TRUE
            Netscape Comment: 
                OpenSSL Generated Certificate
            X509v3 Subject Key Identifier: 
                AF:4B:E9:1F:4F:F5:D0:26:3B:C5:5F:24:65:AF:FF:D8:E6:3E:4C:CC
            X509v3 Authority Key Identifier: 
                keyid:DC:CE:48:F3:66:31:5F:6F:41:92:C0:4A:07:8F:38:D9:BA:66:58:19

    Signature Algorithm: sha1WithRSAEncryption
        73:e2:1b:17:0c:b3:af:85:6c:32:7a:ae:39:2a:9a:1b:4b:b9:
        ce:8f:37:c7:31:eb:8c:bd:4d:2b:45:42:dd:ec:b8:1e:60:45:
        16:e8:5f:a1:2e:5f:41:bd:9e:44:c6:29:dd:b0:de:8b:ac:c4:
        65:2c:b8:1f:b6:cc:00:cc:11:94:92:31:96:ea:ca:1e:fb:8b:
        46:dd:22:e4:21:24:6f:f3:16:60:45:3b:40:65:61:28:d8:93:
        d9:6f:c7:8a:84:56:41:29:02:ad:25:18:1c:2f:8b:34:28:d9:
        7a:8f:81:d3:4b:d1:cd:ab:58:8d:81:55:cf:c6:85:da:d0:28:
        eb:75:e1:d7:0e:81:c5:ad:f7:a3:8d:a3:f7:f4:d8:dc:61:95:
        88:e1:3e:66:3f:da:44:c9:a3:3a:d5:51:3a:b5:f3:ec:4f:9d:
        c2:0c:90:1d:87:20:c9:ce:ca:85:3e:dd:7a:66:76:ea:80:33:
        17:c9:81:65:5f:d8:87:f1:90:a6:1c:ba:d3:d0:62:fc:7e:79:
        5b:27:4c:12:0c:b8:4e:5e:b6:48:f3:ba:e5:f1:b7:51:0b:51:
        87:9c:5a:53:43:07:93:dd:56:80:92:95:a7:39:51:bb:88:8e:
        84:b0:60:74:a9:a4:d0:c3:39:ad:f3:c8:b7:2d:50:00:f2:18:
        6a:1d:9a:51
-----BEGIN CERTIFICATE-----
MIIDzTCCArWgAwIBAgIJAJZTPwA1TbdMMA0GCSqGSIb3DQEBBQUAMGQxCzAJBgNV
BAYTAlRXMQ8wDQYDVQQIDAZUYWl3YW4xDzANBgNVBAcMBlRhaXBlaTEXMBUGA1UE
CgwOSW5zdGVrIERpZ2l0YWwxGjAYBgNVBAMMEUluc3RlayBEaWdpdGFsIENBMB4X
DTExMTEwODA2MDEyN1oXDTEyMTEwNzA2MDEyN1owaDELMAkGA1UEBhMCVFcxDzAN
BgNVBAgMBlRhaXdhbjEPMA0GA1UEBwwGVGFpcGVpMRcwFQYDVQQKDA5JbnN0ZWsg
RGlnaXRhbDEeMBwGA1UEAwwVSW5zdGVrIERpZ2l0YWwgQ2xpZW50MIIBIjANBgkq
hkiG9w0BAQEFAAOCAQ8AMIIBCgKCAQEAsQSeDE86Q/iKJ6U4+Eiwg+zqVdQC0Nt4
eNmfOZLxz5zZVB/F9zTJoeOsFHivptz/K6t6JZDPXmv813GT5+XawsbP8tTAbn9N
heP6mFazxVzeIaMDhTVIKNmLLu3gs0bYaOCpkp3yKx6hDzoHr8u0ygcX393LbOJB
MYIkfrvbGUU79IMTy8bXA8WKf0yigiJKAMBDJeUldIQ60Efn6lNl9ulLcbUyMS/G
geSGwYv+ERLgonSckmYwJei2JFtwWbWKffnugDRpqh1HmlfYJXqDZZarDyUvrGgw
19GBtHOVdvw4BO2Nhk17UU5UFWrbNxV3fAa8uzgLH08mXGdez5NaIQIDAQABo34w
fDAMBgNVHRMEBTADAQH/MCwGCWCGSAGG+EIBDQQfFh1PcGVuU1NMIEdlbmVyYXRl
ZCBDZXJ0aWZpY2F0ZTAdBgNVHQ4EFgQUr0vpH0/10CY7xV8kZa//2OY+TMwwHwYD
VR0jBBgwFoAU3M5I82YxX29BksBKB4842bpmWBkwDQYJKoZIhvcNAQEFBQADggEB
AHPiGxcMs6+FbDJ6rjkqmhtLuc6PN8cx64y9TStFQt3suB5gRRboX6EuX0G9nkTG
Kd2w3ousxGUsuB+2zADMEZSSMZbqyh77i0bdIuQhJG/zFmBFO0BlYSjYk9lvx4qE
VkEpAq0lGBwvizQo2XqPgdNL0c2rWI2BVc/GhdrQKOt14dcOgcWt96ONo/f02Nxh
lYjhPmY/2kTJozrVUTq18+xPncIMkB2HIMnOyoU+3XpmduqAMxfJgWVf2IfxkKYc
utPQYvx+eVsnTBIMuE5etkjzuuXxt1ELUYecWlNDB5PdVoCSlac5UbuIjoSwYHSp
pNDDOa3zyLctUADyGGodmlE=
-----END CERTIFICATE-----
